target datalayout = "e-m:e-p270:32:32-p271:32:32-p272:64:64-i64:64-i128:128-f80:128-n8:16:32:64-S128"
target triple = "x86_64-pc-linux-gnu"

@__const._ZL13days_in_monthmm.month_table = private unnamed_addr constant [12 x i32] [i32 31, i32 28, i32 31, i32 30, i32 31, i32 30, i32 31, i32 31, i32 30, i32 31, i32 30, i32 31], align 16

; Function Attrs: mustprogress nounwind uwtable
define internal noundef i32 @_ZL12is_leap_yearl(i64 noundef %0) #4 {
  %2 = alloca i64, align 8
  store i64 %0, ptr %2, align 8, !tbaa !88
  %3 = load i64, ptr %2, align 8, !tbaa !88
  %4 = srem i64 %3, 4
  %5 = icmp eq i64 %4, 0
  br i1 %5, label %6, label %10

6:                                                ; preds = %1
  %7 = load i64, ptr %2, align 8, !tbaa !88
  %8 = srem i64 %7, 100
  %9 = icmp ne i64 %8, 0
  br i1 %9, label %14, label %10

10:                                               ; preds = %6, %1
  %11 = load i64, ptr %2, align 8, !tbaa !88
  %12 = srem i64 %11, 400
  %13 = icmp eq i64 %12, 0
  br label %14

14:                                               ; preds = %10, %6
  %15 = phi i1 [ true, %6 ], [ %13, %10 ]
  %16 = zext i1 %15 to i32
  ret i32 %16
}

; Function Attrs: mustprogress nounwind uwtable
define internal noundef i32 @_ZL13days_in_monthmm(i64 noundef %0, i64 noundef %1) #4 {
  %3 = alloca i64, align 8
  %4 = alloca i64, align 8
  %5 = alloca [12 x i32], align 16
  %6 = alloca i32, align 4
  store i64 %0, ptr %3, align 8, !tbaa !88
  store i64 %1, ptr %4, align 8, !tbaa !88
  call void @llvm.lifetime.start.p0(i64 48, ptr %5) #10
  call void @llvm.memcpy.p0.p0.i64(ptr align 16 %5, ptr align 16 @__const._ZL13days_in_monthmm.month_table, i64 48, i1 false)
  call void @llvm.lifetime.start.p0(i64 4, ptr %6) #10
  %7 = load i64, ptr %4, align 8, !tbaa !88
  %8 = icmp ugt i64 %7, 12
  br i1 %8, label %9, label %10

9:                                                ; preds = %2
  store i64 12, ptr %4, align 8, !tbaa !88
  br label %10

10:                                               ; preds = %9, %2
  %11 = load i64, ptr %4, align 8, !tbaa !88
  %12 = icmp eq i64 %11, 0
  br i1 %12, label %13, label %14

13:                                               ; preds = %10
  store i64 1, ptr %4, align 8, !tbaa !88
  br label %14

14:                                               ; preds = %13, %10
  %15 = load i64, ptr %4, align 8, !tbaa !88
  %16 = sub i64 %15, 1
  %17 = getelementptr inbounds nuw [12 x i32], ptr %5, i64 0, i64 %16
  %18 = load i32, ptr %17, align 4, !tbaa !43
  store i32 %18, ptr %6, align 4, !tbaa !43
  %19 = load i64, ptr %3, align 8, !tbaa !88
  %20 = call noundef i32 @_ZL12is_leap_yearl(i64 noundef %19)
  %21 = icmp ne i32 %20, 0
  br i1 %21, label %22, label %28

22:                                               ; preds = %14
  %23 = load i64, ptr %4, align 8, !tbaa !88
  %24 = icmp eq i64 %23, 2
  br i1 %24, label %25, label %28

25:                                               ; preds = %22
  %26 = load i32, ptr %6, align 4, !tbaa !43
  %27 = add i32 %26, 1
  store i32 %27, ptr %6, align 4, !tbaa !43
  br label %28

28:                                               ; preds = %25, %22, %14
  %29 = load i32, ptr %6, align 4, !tbaa !43
  call void @llvm.lifetime.end.p0(i64 4, ptr %6) #10
  call void @llvm.lifetime.end.p0(i64 48, ptr %5) #10
  ret i32 %29
}

; Function Attrs: mustprogress uwtable
define internal noundef i32 @_ZL12days_in_yearl(i64 noundef %0) #0 {
  %2 = alloca i64, align 8
  store i64 %0, ptr %2, align 8, !tbaa !88
  %3 = load i64, ptr %2, align 8, !tbaa !88
  %4 = call noundef i32 @_ZL12is_leap_yearl(i64 noundef %3)
  %5 = icmp ne i32 %4, 0
  %6 = select i1 %5, i32 366, i32 365
  ret i32 %6
}

; Function Attrs: mustprogress uwtable
define internal noundef i32 @_ZL17daynumber_in_yearmmm(i64 noundef %0, i64 noundef %1, i64 noundef %2) #0 {
  %4 = alloca i64, align 8
  %5 = alloca i64, align 8
  %6 = alloca i64, align 8
  %7 = alloca i32, align 4
  %8 = alloca i32, align 4
  store i64 %0, ptr %4, align 8, !tbaa !88
  store i64 %1, ptr %5, align 8, !tbaa !88
  store i64 %2, ptr %6, align 8, !tbaa !88
  call void @llvm.lifetime.start.p0(i64 4, ptr %7) #10
  store i32 0, ptr %7, align 4, !tbaa !43
  call void @llvm.lifetime.start.p0(i64 4, ptr %8) #10
  %9 = load i64, ptr %5, align 8, !tbaa !88
  %10 = icmp ugt i64 %9, 12
  br i1 %10, label %11, label %12

11:                                               ; preds = %3
  store i64 12, ptr %5, align 8, !tbaa !88
  br label %12

12:                                               ; preds = %11, %3
  %13 = load i64, ptr %5, align 8, !tbaa !88
  %14 = icmp eq i64 %13, 0
  br i1 %14, label %15, label %16

15:                                               ; preds = %12
  store i64 1, ptr %5, align 8, !tbaa !88
  br label %16

16:                                               ; preds = %15, %12
  %17 = load i64, ptr %6, align 8, !tbaa !88
  %18 = load i64, ptr %4, align 8, !tbaa !88
  %19 = load i64, ptr %5, align 8, !tbaa !88
  %20 = call noundef i32 @_ZL13days_in_monthmm(i64 noundef %18, i64 noundef %19)
  %21 = zext i32 %20 to i64
  %22 = icmp ugt i64 %17, %21
  br i1 %22, label %23, label %28

23:                                               ; preds = %16
  %24 = load i64, ptr %4, align 8, !tbaa !88
  %25 = load i64, ptr %5, align 8, !tbaa !88
  %26 = call noundef i32 @_ZL13days_in_monthmm(i64 noundef %24, i64 noundef %25)
  %27 = zext i32 %26 to i64
  store i64 %27, ptr %6, align 8, !tbaa !88
  br label %28

28:                                               ; preds = %23, %16
  store i32 1, ptr %8, align 4, !tbaa !43
  br label %29

29:                                               ; preds = %41, %28
  %30 = load i32, ptr %8, align 4, !tbaa !43
  %31 = zext i32 %30 to i64
  %32 = load i64, ptr %5, align 8, !tbaa !88
  %33 = icmp ult i64 %31, %32
  br i1 %33, label %34, label %44

34:                                               ; preds = %29
  %35 = load i64, ptr %4, align 8, !tbaa !88
  %36 = load i32, ptr %8, align 4, !tbaa !43
  %37 = zext i32 %36 to i64
  %38 = call noundef i32 @_ZL13days_in_monthmm(i64 noundef %35, i64 noundef %37)
  %39 = load i32, ptr %7, align 4, !tbaa !43
  %40 = add i32 %39, %38
  store i32 %40, ptr %7, align 4, !tbaa !43
  br label %41

41:                                               ; preds = %34
  %42 = load i32, ptr %8, align 4, !tbaa !43
  %43 = add i32 %42, 1
  store i32 %43, ptr %8, align 4, !tbaa !43
  br label %29, !llvm.loop !94

44:                                               ; preds = %29
  %45 = load i64, ptr %6, align 8, !tbaa !88
  %46 = load i32, ptr %7, align 4, !tbaa !43
  %47 = zext i32 %46 to i64
  %48 = add i64 %47, %45
  %49 = trunc i64 %48 to i32
  store i32 %49, ptr %7, align 4, !tbaa !43
  %50 = load i32, ptr %7, align 4, !tbaa !43
  call void @llvm.lifetime.end.p0(i64 4, ptr %8) #10
  call void @llvm.lifetime.end.p0(i64 4, ptr %7) #10
  ret i32 %50
}

; Function Attrs: mustprogress uwtable
define internal noundef double @_ZL15yyyymmdd_to_mjdd(double noundef %0) #0 {
  %2 = alloca double, align 8
  %3 = alloca i64, align 8
  %4 = alloca i64, align 8
  %5 = alloca i64, align 8
  %6 = alloca double, align 8
  store double %0, ptr %2, align 8, !tbaa !62
  call void @llvm.lifetime.start.p0(i64 8, ptr %3) #10
  %7 = load double, ptr %2, align 8, !tbaa !62
  %8 = fdiv double %7, 1.000000e+04
  %9 = call double @llvm.floor.f64(double %8)
  %10 = call i64 @lround(double noundef %9) #10, !tbaa !43
  store i64 %10, ptr %3, align 8, !tbaa !88
  call void @llvm.lifetime.start.p0(i64 8, ptr %4) #10
  %11 = load double, ptr %2, align 8, !tbaa !62
  %12 = load i64, ptr %3, align 8, !tbaa !88
  %13 = mul nsw i64 %12, 10000
  %14 = sitofp i64 %13 to double
  %15 = fsub double %11, %14
  %16 = fdiv double %15, 1.000000e+02
  %17 = call double @llvm.floor.f64(double %16)
  %18 = call i64 @lround(double noundef %17) #10, !tbaa !43
  store i64 %18, ptr %4, align 8, !tbaa !88
  call void @llvm.lifetime.start.p0(i64 8, ptr %5) #10
  %19 = load double, ptr %2, align 8, !tbaa !62
  %20 = load i64, ptr %3, align 8, !tbaa !88
  %21 = mul nsw i64 %20, 10000
  %22 = sitofp i64 %21 to double
  %23 = fsub double %19, %22
  %24 = load i64, ptr %4, align 8, !tbaa !88
  %25 = mul nsw i64 %24, 100
  %26 = sitofp i64 %25 to double
  %27 = fsub double %23, %26
  %28 = call double @llvm.floor.f64(double %27)
  %29 = call i64 @lround(double noundef %28) #10, !tbaa !43
  store i64 %29, ptr %5, align 8, !tbaa !88
  call void @llvm.lifetime.start.p0(i64 8, ptr %6) #10
  %30 = load i64, ptr %3, align 8, !tbaa !88
  %31 = load i64, ptr %4, align 8, !tbaa !88
  %32 = load i64, ptr %5, align 8, !tbaa !88
  %33 = call noundef i32 @_ZL17daynumber_in_yearmmm(i64 noundef %30, i64 noundef %31, i64 noundef %32)
  %34 = sitofp i32 %33 to double
  store double %34, ptr %6, align 8, !tbaa !62
  %35 = load i64, ptr %3, align 8, !tbaa !88
  %36 = sub nsw i64 %35, 1
  store i64 %36, ptr %3, align 8, !tbaa !88
  br label %37

37:                                               ; preds = %46, %1
  %38 = load i64, ptr %3, align 8, !tbaa !88
  %39 = icmp sgt i64 %38, 1858
  br i1 %39, label %40, label %49

40:                                               ; preds = %37
  %41 = load i64, ptr %3, align 8, !tbaa !88
  %42 = call noundef i32 @_ZL12days_in_yearl(i64 noundef %41)
  %43 = sitofp i32 %42 to double
  %44 = load double, ptr %6, align 8, !tbaa !62
  %45 = fadd double %44, %43
  store double %45, ptr %6, align 8, !tbaa !62
  br label %46

46:                                               ; preds = %40
  %47 = load i64, ptr %3, align 8, !tbaa !88
  %48 = add nsw i64 %47, -1
  store i64 %48, ptr %3, align 8, !tbaa !88
  br label %37, !llvm.loop !91

49:                                               ; preds = %37
  %50 = load double, ptr %6, align 8, !tbaa !62
  %51 = fadd double %50, 1.300000e+01
  %52 = fadd double %51, 3.100000e+01
  call void @llvm.lifetime.end.p0(i64 8, ptr %6) #10
  call void @llvm.lifetime.end.p0(i64 8, ptr %5) #10
  call void @llvm.lifetime.end.p0(i64 8, ptr %4) #10
  call void @llvm.lifetime.end.p0(i64 8, ptr %3) #10
  ret double %52
}