; Function Attrs: mustprogress nounwind uwtable
define internal noundef double @_ZL15yyyymmdd_to_mjdd(double noundef %0) #7 {
  %2 = fdiv double %0, 1.000000e+04
  %3 = tail call double @llvm.floor.f64(double %2)
  %4 = tail call i64 @lround(double noundef %3) #13, !tbaa !78
  %5 = mul nsw i64 %4, 10000
  %6 = sitofp i64 %5 to double
  %7 = fsub double %0, %6
  %8 = fdiv double %7, 1.000000e+02
  %9 = tail call double @llvm.floor.f64(double %8)
  %10 = tail call i64 @lround(double noundef %9) #13, !tbaa !78
  %11 = mul nsw i64 %10, 100
  %12 = sitofp i64 %11 to double
  %13 = fsub double %7, %12
  %14 = tail call double @llvm.floor.f64(double %13)
  %15 = tail call i64 @lround(double noundef %14) #13, !tbaa !78
  %spec.store.select.i = tail call i64 @llvm.umin.i64(i64 %10, i64 12)
  %16 = icmp eq i64 %10, 0
  %spec.store.select1.i = select i1 %16, i64 1, i64 %spec.store.select.i
  %17 = tail call i64 @llvm.usub.sat.i64(i64 %spec.store.select1.i, i64 1)
  %18 = getelementptr inbounds nuw [12 x i32], ptr @__const._ZL13days_in_monthmm.month_table, i64 0, i64 %17
  %19 = load i32, ptr %18, align 4, !tbaa !78
  %20 = and i64 %4, 3
  %21 = icmp ne i64 %20, 0
  %22 = srem i64 %4, 100
  %.not.i.i.i = icmp eq i64 %22, 0
  %or.cond.i.i.i = or i1 %21, %.not.i.i.i
  br i1 %or.cond.i.i.i, label %_ZL13days_in_monthmm.exit.i, label %_ZL13days_in_monthmm.exit.thread.i

_ZL13days_in_monthmm.exit.i:                      ; preds = %1
  %23 = srem i64 %4, 400
  %24 = icmp eq i64 %23, 0
  %25 = icmp eq i64 %spec.store.select1.i, 2
  %or.cond.i.i = and i1 %24, %25
  %26 = zext i1 %or.cond.i.i to i32
  %spec.select.i.i = add i32 %19, %26
  %27 = zext i32 %spec.select.i.i to i64
  %28 = icmp samesign ugt i64 %spec.store.select1.i, 1
  %. = tail call i64 @llvm.umin.i64(i64 %15, i64 %27)
  br i1 %28, label %_ZL13days_in_monthmm.exit32.us.i, label %_ZL17daynumber_in_yearmmm.exit

_ZL13days_in_monthmm.exit.thread.i:               ; preds = %1
  %29 = icmp eq i64 %spec.store.select1.i, 2
  %30 = zext i1 %29 to i32
  %spec.select.i34.i = add i32 %19, %30
  %31 = zext i32 %spec.select.i34.i to i64
  %32 = icmp samesign ugt i64 %spec.store.select1.i, 1
  %.26 = tail call i64 @llvm.umin.i64(i64 %15, i64 %31)
  br i1 %32, label %_ZL13days_in_monthmm.exit32.i, label %_ZL17daynumber_in_yearmmm.exit

_ZL13days_in_monthmm.exit32.us.i:                 ; preds = %_ZL13days_in_monthmm.exit.i, %_ZL13days_in_monthmm.exit32.us.i
  %indvars.iv40.i = phi i64 [ %indvars.iv.next41.i, %_ZL13days_in_monthmm.exit32.us.i ], [ 1, %_ZL13days_in_monthmm.exit.i ]
  %.01735.us.i = phi i32 [ %38, %_ZL13days_in_monthmm.exit32.us.i ], [ 0, %_ZL13days_in_monthmm.exit.i ]
  %spec.store.select.i.us.i = tail call i64 @llvm.umin.i64(i64 %indvars.iv40.i, i64 12)
  %33 = add nsw i64 %spec.store.select.i.us.i, -1
  %34 = getelementptr inbounds nuw [12 x i32], ptr @__const._ZL13days_in_monthmm.month_table, i64 0, i64 %33
  %35 = load i32, ptr %34, align 4, !tbaa !78
  %36 = icmp eq i64 %indvars.iv40.i, 2
  %or.cond.i30.us.i = and i1 %24, %36
  %37 = zext i1 %or.cond.i30.us.i to i32
  %spec.select.i31.us.i = add i32 %35, %.01735.us.i
  %38 = add i32 %spec.select.i31.us.i, %37
  %indvars.iv.next41.i = add nuw nsw i64 %indvars.iv40.i, 1
  %exitcond43.not.i = icmp eq i64 %indvars.iv.next41.i, %spec.store.select1.i
  br i1 %exitcond43.not.i, label %_ZL17daynumber_in_yearmmm.exit, label %_ZL13days_in_monthmm.exit32.us.i, !llvm.loop !81

_ZL13days_in_monthmm.exit32.i:                    ; preds = %_ZL13days_in_monthmm.exit.thread.i, %_ZL13days_in_monthmm.exit32.i
  %indvars.iv.i = phi i64 [ %indvars.iv.next.i, %_ZL13days_in_monthmm.exit32.i ], [ 1, %_ZL13days_in_monthmm.exit.thread.i ]
  %.01735.i = phi i32 [ %44, %_ZL13days_in_monthmm.exit32.i ], [ 0, %_ZL13days_in_monthmm.exit.thread.i ]
  %spec.store.select.i.i = tail call i64 @llvm.umin.i64(i64 %indvars.iv.i, i64 12)
  %39 = add nsw i64 %spec.store.select.i.i, -1
  %40 = getelementptr inbounds nuw [12 x i32], ptr @__const._ZL13days_in_monthmm.month_table, i64 0, i64 %39
  %41 = load i32, ptr %40, align 4, !tbaa !78
  %42 = icmp eq i64 %indvars.iv.i, 2
  %43 = zext i1 %42 to i32
  %spec.select.i31.i = add i32 %41, %.01735.i
  %44 = add i32 %spec.select.i31.i, %43
  %indvars.iv.next.i = add nuw nsw i64 %indvars.iv.i, 1
  %exitcond.not.i = icmp eq i64 %indvars.iv.next.i, %spec.store.select1.i
  br i1 %exitcond.not.i, label %_ZL17daynumber_in_yearmmm.exit, label %_ZL13days_in_monthmm.exit32.i, !llvm.loop !81

_ZL17daynumber_in_yearmmm.exit:                   ; preds = %_ZL13days_in_monthmm.exit32.i, %_ZL13days_in_monthmm.exit32.us.i, %_ZL13days_in_monthmm.exit.thread.i, %_ZL13days_in_monthmm.exit.i
  %.01845.i = phi i64 [ %., %_ZL13days_in_monthmm.exit.i ], [ %.26, %_ZL13days_in_monthmm.exit.thread.i ], [ %., %_ZL13days_in_monthmm.exit32.us.i ], [ %.26, %_ZL13days_in_monthmm.exit32.i ]
  %.017.lcssa.i = phi i32 [ 0, %_ZL13days_in_monthmm.exit.i ], [ 0, %_ZL13days_in_monthmm.exit.thread.i ], [ %38, %_ZL13days_in_monthmm.exit32.us.i ], [ %44, %_ZL13days_in_monthmm.exit32.i ]
  %45 = trunc i64 %.01845.i to i32
  %46 = add i32 %.017.lcssa.i, %45
  %47 = sitofp i32 %46 to double
  %48 = icmp sgt i64 %4, 1859
  br i1 %48, label %.lr.ph, label %._crit_edge

.lr.ph:                                           ; preds = %_ZL17daynumber_in_yearmmm.exit, %_ZL12days_in_yearl.exit
  %.019 = phi double [ %55, %_ZL12days_in_yearl.exit ], [ %47, %_ZL17daynumber_in_yearmmm.exit ]
  %.014.in18 = phi i64 [ %.014, %_ZL12days_in_yearl.exit ], [ %4, %_ZL17daynumber_in_yearmmm.exit ]
  %.014 = add nsw i64 %.014.in18, -1
  %49 = and i64 %.014, 3
  %50 = icmp ne i64 %49, 0
  %51 = urem i64 %.014, 100
  %.not.i.i = icmp eq i64 %51, 0
  %or.cond.i.i15 = or i1 %50, %.not.i.i
  br i1 %or.cond.i.i15, label %_ZL12is_leap_yearl.exit.i, label %_ZL12days_in_yearl.exit

_ZL12is_leap_yearl.exit.i:                        ; preds = %.lr.ph
  %52 = urem i64 %.014, 400
  %.not.i = icmp eq i64 %52, 0
  %53 = select i1 %.not.i, double 3.660000e+02, double 3.650000e+02
  br label %_ZL12days_in_yearl.exit

_ZL12days_in_yearl.exit:                          ; preds = %.lr.ph, %_ZL12is_leap_yearl.exit.i
  %54 = phi double [ 3.660000e+02, %.lr.ph ], [ %53, %_ZL12is_leap_yearl.exit.i ]
  %55 = fadd double %.019, %54
  %56 = icmp samesign ugt i64 %.014.in18, 1860
  br i1 %56, label %.lr.ph, label %._crit_edge, !llvm.loop !82

._crit_edge:                                      ; preds = %_ZL12days_in_yearl.exit, %_ZL17daynumber_in_yearmmm.exit
  %.0.lcssa = phi double [ %47, %_ZL17daynumber_in_yearmmm.exit ], [ %55, %_ZL12days_in_yearl.exit ]
  %57 = fadd double %.0.lcssa, 1.300000e+01
  %58 = fadd double %57, 3.100000e+01
  ret double %58
}